target datalayout = "e-m:e-p270:32:32-p271:32:32-p272:64:64-i64:64-i128:128-f80:128-n8:16:32:64-S128"
target triple = "x86_64-pc-linux-gnu"

%struct.ItemPointerData = type { %struct.BlockIdData, i16 }
%struct.BlockIdData = type { i16, i16 }
%struct.HeapTupleHeaderData = type { %union.anon.1, %struct.ItemPointerData, i16, i16, i8, [0 x i8] }
%union.anon.1 = type { %struct.HeapTupleFields }
%struct.HeapTupleFields = type { i32, i32, %union.anon.2 }
%union.anon.2 = type { i32 }
%struct.MultiXactMember = type { i32, i32 }

; Function Attrs: nounwind uwtable
define internal i32 @MultiXactIdGetUpdateXid(i32 noundef %0, i16 noundef zeroext %1) #0 {
  %3 = alloca i32, align 4
  %4 = alloca i16, align 2
  %5 = alloca i32, align 4
  %6 = alloca ptr, align 8
  %7 = alloca i32, align 4
  %8 = alloca i32, align 4
  store i32 %0, ptr %3, align 4
  store i16 %1, ptr %4, align 2
  call void @llvm.lifetime.start.p0(i64 4, ptr %5) #10
  store i32 0, ptr %5, align 4
  call void @llvm.lifetime.start.p0(i64 8, ptr %6) #10
  call void @llvm.lifetime.start.p0(i64 4, ptr %7) #10
  %9 = load i32, ptr %3, align 4
  %10 = call i32 @GetMultiXactIdMembers(i32 noundef %9, ptr noundef %6, i1 noundef zeroext false, i1 noundef zeroext false)
  store i32 %10, ptr %7, align 4
  %11 = load i32, ptr %7, align 4
  %12 = icmp sgt i32 %11, 0
  br i1 %12, label %13, label %39

13:                                               ; preds = %2
  call void @llvm.lifetime.start.p0(i64 4, ptr %8) #10
  store i32 0, ptr %8, align 4
  br label %14

14:                                               ; preds = %34, %13
  %15 = load i32, ptr %8, align 4
  %16 = load i32, ptr %7, align 4
  %17 = icmp slt i32 %15, %16
  br i1 %17, label %18, label %37

18:                                               ; preds = %14
  %19 = load ptr, ptr %6, align 8
  %20 = load i32, ptr %8, align 4
  %21 = sext i32 %20 to i64
  %22 = getelementptr inbounds %struct.MultiXactMember, ptr %19, i64 %21
  %23 = getelementptr inbounds nuw %struct.MultiXactMember, ptr %22, i32 0, i32 1
  %24 = load i32, ptr %23, align 4
  %25 = icmp ugt i32 %24, 3
  br i1 %25, label %27, label %26

26:                                               ; preds = %18
  br label %34

27:                                               ; preds = %18
  %28 = load ptr, ptr %6, align 8
  %29 = load i32, ptr %8, align 4
  %30 = sext i32 %29 to i64
  %31 = getelementptr inbounds %struct.MultiXactMember, ptr %28, i64 %30
  %32 = getelementptr inbounds nuw %struct.MultiXactMember, ptr %31, i32 0, i32 0
  %33 = load i32, ptr %32, align 4
  store i32 %33, ptr %5, align 4
  br label %37

34:                                               ; preds = %26
  %35 = load i32, ptr %8, align 4
  %36 = add i32 %35, 1
  store i32 %36, ptr %8, align 4
  br label %14, !llvm.loop !29

37:                                               ; preds = %27, %14
  %38 = load ptr, ptr %6, align 8
  call void @pfree(ptr noundef %38)
  call void @llvm.lifetime.end.p0(i64 4, ptr %8) #10
  br label %39

39:                                               ; preds = %37, %2
  %40 = load i32, ptr %5, align 4
  call void @llvm.lifetime.end.p0(i64 4, ptr %7) #10
  call void @llvm.lifetime.end.p0(i64 8, ptr %6) #10
  call void @llvm.lifetime.end.p0(i64 4, ptr %5) #10
  ret i32 %40
}

; Function Attrs: inlinehint nounwind uwtable
define internal i32 @HeapTupleHeaderGetRawXmax(ptr noundef %0) #3 {
  %2 = alloca ptr, align 8
  store ptr %0, ptr %2, align 8
  %3 = load ptr, ptr %2, align 8
  %4 = getelementptr inbounds nuw %struct.HeapTupleHeaderData, ptr %3, i32 0, i32 0
  %5 = getelementptr inbounds nuw %struct.HeapTupleFields, ptr %4, i32 0, i32 1
  %6 = load i32, ptr %5, align 4
  ret i32 %6
}

; Function Attrs: nounwind uwtable
define dso_local i32 @HeapTupleGetUpdateXid(ptr noundef %0) #0 {
  %2 = alloca ptr, align 8
  store ptr %0, ptr %2, align 8
  %3 = load ptr, ptr %2, align 8
  %4 = call i32 @HeapTupleHeaderGetRawXmax(ptr noundef %3)
  %5 = load ptr, ptr %2, align 8
  %6 = getelementptr inbounds nuw %struct.HeapTupleHeaderData, ptr %5, i32 0, i32 3
  %7 = load i16, ptr %6, align 4
  %8 = call i32 @MultiXactIdGetUpdateXid(i32 noundef %4, i16 noundef zeroext %7)
  ret i32 %8
}

; Function Attrs: inlinehint nounwind uwtable
define internal i32 @HeapTupleHeaderGetRawXmin(ptr noundef %0) #3 {
  %2 = alloca ptr, align 8
  store ptr %0, ptr %2, align 8
  %3 = load ptr, ptr %2, align 8
  %4 = getelementptr inbounds nuw %struct.HeapTupleHeaderData, ptr %3, i32 0, i32 0
  %5 = getelementptr inbounds nuw %struct.HeapTupleFields, ptr %4, i32 0, i32 0
  %6 = load i32, ptr %5, align 4
  ret i32 %6
}

; Function Attrs: inlinehint nounwind uwtable
define internal zeroext i1 @HeapTupleHeaderXminFrozen(ptr noundef %0) #3 {
  %2 = alloca ptr, align 8
  store ptr %0, ptr %2, align 8
  %3 = load ptr, ptr %2, align 8
  %4 = getelementptr inbounds nuw %struct.HeapTupleHeaderData, ptr %3, i32 0, i32 3
  %5 = load i16, ptr %4, align 4
  %6 = zext i16 %5 to i32
  %7 = and i32 %6, 768
  %8 = icmp eq i32 %7, 768
  ret i1 %8
}

; Function Attrs: inlinehint nounwind uwtable
define internal zeroext i1 @HeapTupleHeaderXminInvalid(ptr noundef %0) #3 {
  %2 = alloca ptr, align 8
  store ptr %0, ptr %2, align 8
  %3 = load ptr, ptr %2, align 8
  %4 = getelementptr inbounds nuw %struct.HeapTupleHeaderData, ptr %3, i32 0, i32 3
  %5 = load i16, ptr %4, align 4
  %6 = zext i16 %5 to i32
  %7 = and i32 %6, 768
  %8 = icmp eq i32 %7, 512
  ret i1 %8
}

; Function Attrs: inlinehint nounwind uwtable
define internal zeroext i1 @HeapTupleHeaderXminCommitted(ptr noundef %0) #3 {
  %2 = alloca ptr, align 8
  store ptr %0, ptr %2, align 8
  %3 = load ptr, ptr %2, align 8
  %4 = getelementptr inbounds nuw %struct.HeapTupleHeaderData, ptr %3, i32 0, i32 3
  %5 = load i16, ptr %4, align 4
  %6 = zext i16 %5 to i32
  %7 = and i32 %6, 256
  %8 = icmp ne i32 %7, 0
  ret i1 %8
}

; Function Attrs: inlinehint nounwind uwtable
define internal i32 @HeapTupleHeaderGetXvac(ptr noundef %0) #3 {
  %2 = alloca i32, align 4
  %3 = alloca ptr, align 8
  store ptr %0, ptr %3, align 8
  %4 = load ptr, ptr %3, align 8
  %5 = getelementptr inbounds nuw %struct.HeapTupleHeaderData, ptr %4, i32 0, i32 3
  %6 = load i16, ptr %5, align 4
  %7 = zext i16 %6 to i32
  %8 = and i32 %7, 49152
  %9 = icmp ne i32 %8, 0
  br i1 %9, label %10, label %15

10:                                               ; preds = %1
  %11 = load ptr, ptr %3, align 8
  %12 = getelementptr inbounds nuw %struct.HeapTupleHeaderData, ptr %11, i32 0, i32 0
  %13 = getelementptr inbounds nuw %struct.HeapTupleFields, ptr %12, i32 0, i32 2
  %14 = load i32, ptr %13, align 4
  store i32 %14, ptr %2, align 4
  br label %16

15:                                               ; preds = %1
  store i32 0, ptr %2, align 4
  br label %16

16:                                               ; preds = %15, %10
  %17 = load i32, ptr %2, align 4
  ret i32 %17
}

; Function Attrs: inlinehint nounwind uwtable
define internal i32 @HeapTupleHeaderGetUpdateXid(ptr noundef %0) #3 {
  %2 = alloca i32, align 4
  %3 = alloca ptr, align 8
  store ptr %0, ptr %3, align 8
  %4 = load ptr, ptr %3, align 8
  %5 = getelementptr inbounds nuw %struct.HeapTupleHeaderData, ptr %4, i32 0, i32 3
  %6 = load i16, ptr %5, align 4
  %7 = zext i16 %6 to i32
  %8 = and i32 %7, 2048
  %9 = icmp ne i32 %8, 0
  br i1 %9, label %27, label %10

10:                                               ; preds = %1
  %11 = load ptr, ptr %3, align 8
  %12 = getelementptr inbounds nuw %struct.HeapTupleHeaderData, ptr %11, i32 0, i32 3
  %13 = load i16, ptr %12, align 4
  %14 = zext i16 %13 to i32
  %15 = and i32 %14, 4096
  %16 = icmp ne i32 %15, 0
  br i1 %16, label %17, label %27

17:                                               ; preds = %10
  %18 = load ptr, ptr %3, align 8
  %19 = getelementptr inbounds nuw %struct.HeapTupleHeaderData, ptr %18, i32 0, i32 3
  %20 = load i16, ptr %19, align 4
  %21 = zext i16 %20 to i32
  %22 = and i32 %21, 128
  %23 = icmp ne i32 %22, 0
  br i1 %23, label %27, label %24

24:                                               ; preds = %17
  %25 = load ptr, ptr %3, align 8
  %26 = call i32 @HeapTupleGetUpdateXid(ptr noundef %25)
  store i32 %26, ptr %2, align 4
  br label %30

27:                                               ; preds = %17, %10, %1
  %28 = load ptr, ptr %3, align 8
  %29 = call i32 @HeapTupleHeaderGetRawXmax(ptr noundef %28)
  store i32 %29, ptr %2, align 4
  br label %30

30:                                               ; preds = %27, %24
  %31 = load i32, ptr %2, align 4
  ret i32 %31
}

; Function Attrs: inlinehint nounwind uwtable
define internal i32 @HeapTupleHeaderGetXmin(ptr noundef %0) #3 {
  %2 = alloca ptr, align 8
  store ptr %0, ptr %2, align 8
  %3 = load ptr, ptr %2, align 8
  %4 = call zeroext i1 @HeapTupleHeaderXminFrozen(ptr noundef %3)
  br i1 %4, label %5, label %6

5:                                                ; preds = %1
  br label %9

6:                                                ; preds = %1
  %7 = load ptr, ptr %2, align 8
  %8 = call i32 @HeapTupleHeaderGetRawXmin(ptr noundef %7)
  br label %9

9:                                                ; preds = %6, %5
  %10 = phi i32 [ 2, %5 ], [ %8, %6 ]
  ret i32 %10
}

; Function Attrs: nounwind uwtable
define dso_local void @HeapTupleHeaderAdvanceConflictHorizon(ptr noundef %0, ptr noundef %1) #0 {
  %3 = alloca ptr, align 8
  %4 = alloca ptr, align 8
  %5 = alloca i32, align 4
  %6 = alloca i32, align 4
  %7 = alloca i32, align 4
  store ptr %0, ptr %3, align 8
  store ptr %1, ptr %4, align 8
  call void @llvm.lifetime.start.p0(i64 4, ptr %5) #10
  %8 = load ptr, ptr %3, align 8
  %9 = call i32 @HeapTupleHeaderGetXmin(ptr noundef %8)
  store i32 %9, ptr %5, align 4
  call void @llvm.lifetime.start.p0(i64 4, ptr %6) #10
  %10 = load ptr, ptr %3, align 8
  %11 = call i32 @HeapTupleHeaderGetUpdateXid(ptr noundef %10)
  store i32 %11, ptr %6, align 4
  call void @llvm.lifetime.start.p0(i64 4, ptr %7) #10
  %12 = load ptr, ptr %3, align 8
  %13 = call i32 @HeapTupleHeaderGetXvac(ptr noundef %12)
  store i32 %13, ptr %7, align 4
  %14 = load ptr, ptr %3, align 8
  %15 = getelementptr inbounds nuw %struct.HeapTupleHeaderData, ptr %14, i32 0, i32 3
  %16 = load i16, ptr %15, align 4
  %17 = zext i16 %16 to i32
  %18 = and i32 %17, 49152
  %19 = icmp ne i32 %18, 0
  br i1 %19, label %20, label %29

20:                                               ; preds = %2
  %21 = load ptr, ptr %4, align 8
  %22 = load i32, ptr %21, align 4
  %23 = load i32, ptr %7, align 4
  %24 = call zeroext i1 @TransactionIdPrecedes(i32 noundef %22, i32 noundef %23)
  br i1 %24, label %25, label %28

25:                                               ; preds = %20
  %26 = load i32, ptr %7, align 4
  %27 = load ptr, ptr %4, align 8
  store i32 %26, ptr %27, align 4
  br label %28

28:                                               ; preds = %25, %20
  br label %29

29:                                               ; preds = %28, %2
  %30 = load ptr, ptr %3, align 8
  %31 = call zeroext i1 @HeapTupleHeaderXminCommitted(ptr noundef %30)
  br i1 %31, label %38, label %32

32:                                               ; preds = %29
  %33 = load ptr, ptr %3, align 8
  %34 = call zeroext i1 @HeapTupleHeaderXminInvalid(ptr noundef %33)
  br i1 %34, label %51, label %35

35:                                               ; preds = %32
  %36 = load i32, ptr %5, align 4
  %37 = call zeroext i1 @TransactionIdDidCommit(i32 noundef %36)
  br i1 %37, label %38, label %51

38:                                               ; preds = %35, %29
  %39 = load i32, ptr %6, align 4
  %40 = load i32, ptr %5, align 4
  %41 = icmp ne i32 %39, %40
  br i1 %41, label %42, label %50

42:                                               ; preds = %38
  %43 = load i32, ptr %6, align 4
  %44 = load ptr, ptr %4, align 8
  %45 = load i32, ptr %44, align 4
  %46 = call zeroext i1 @TransactionIdFollows(i32 noundef %43, i32 noundef %45)
  br i1 %46, label %47, label %50

47:                                               ; preds = %42
  %48 = load i32, ptr %6, align 4
  %49 = load ptr, ptr %4, align 8
  store i32 %48, ptr %49, align 4
  br label %50

50:                                               ; preds = %47, %42, %38
  br label %51

51:                                               ; preds = %50, %35, %32
  call void @llvm.lifetime.end.p0(i64 4, ptr %7) #10
  call void @llvm.lifetime.end.p0(i64 4, ptr %6) #10
  call void @llvm.lifetime.end.p0(i64 4, ptr %5) #10
  ret void
}