; Function Attrs: nounwind uwtable
define dso_local void @HeapTupleHeaderAdvanceConflictHorizon(ptr noundef readonly captures(none) %0, ptr noundef captures(none) %1) local_unnamed_addr #2 {
  %3 = alloca ptr, align 8
  %4 = getelementptr i8, ptr %0, i64 20
  %.val.i = load i16, ptr %4, align 4
  %5 = and i16 %.val.i, 768
  %6 = icmp eq i16 %5, 768
  br i1 %6, label %HeapTupleHeaderGetXmin.exit, label %7

7:                                                ; preds = %2
  %.val2.i = load i32, ptr %0, align 4
  br label %HeapTupleHeaderGetXmin.exit

HeapTupleHeaderGetXmin.exit:                      ; preds = %2, %7
  %8 = phi i32 [ %.val2.i, %7 ], [ 2, %2 ]
  %9 = and i16 %.val.i, 6272
  %or.cond7.i = icmp eq i16 %9, 4096
  %10 = getelementptr i8, ptr %0, i64 4
  %.val.i.i = load i32, ptr %10, align 4
  br i1 %or.cond7.i, label %11, label %HeapTupleHeaderGetUpdateXid.exit

11:                                               ; preds = %HeapTupleHeaderGetXmin.exit
  call void @llvm.lifetime.start.p0(i64 8, ptr nonnull %3) #13
  %12 = call i32 @GetMultiXactIdMembers(i32 noundef %.val.i.i, ptr noundef nonnull %3, i1 noundef zeroext false, i1 noundef zeroext false) #13
  %13 = icmp sgt i32 %12, 0
  br i1 %13, label %.preheader.i.i.i, label %HeapTupleGetUpdateXid.exit.i

.preheader.i.i.i:                                 ; preds = %11
  %14 = load ptr, ptr %3, align 8
  %wide.trip.count.i.i.i = zext nneg i32 %12 to i64
  br label %16

15:                                               ; preds = %16
  %indvars.iv.next.i.i.i = add nuw nsw i64 %indvars.iv.i.i.i, 1
  %exitcond.not.i.i.i = icmp eq i64 %indvars.iv.next.i.i.i, %wide.trip.count.i.i.i
  br i1 %exitcond.not.i.i.i, label %.loopexit.i.i.i, label %16, !llvm.loop !15

16:                                               ; preds = %15, %.preheader.i.i.i
  %indvars.iv.i.i.i = phi i64 [ 0, %.preheader.i.i.i ], [ %indvars.iv.next.i.i.i, %15 ]
  %17 = getelementptr inbounds nuw %struct.MultiXactMember, ptr %14, i64 %indvars.iv.i.i.i
  %18 = getelementptr inbounds nuw i8, ptr %17, i64 4
  %19 = load i32, ptr %18, align 4
  %20 = icmp ugt i32 %19, 3
  br i1 %20, label %21, label %15

21:                                               ; preds = %16
  %22 = load i32, ptr %17, align 4
  br label %.loopexit.i.i.i

.loopexit.i.i.i:                                  ; preds = %15, %21
  %.1.i.i.i = phi i32 [ %22, %21 ], [ 0, %15 ]
  call void @pfree(ptr noundef nonnull %14) #13
  br label %HeapTupleGetUpdateXid.exit.i

HeapTupleGetUpdateXid.exit.i:                     ; preds = %.loopexit.i.i.i, %11
  %.08.i.i.i = phi i32 [ %.1.i.i.i, %.loopexit.i.i.i ], [ 0, %11 ]
  call void @llvm.lifetime.end.p0(i64 8, ptr nonnull %3) #13
  %.pre = load i16, ptr %4, align 4
  br label %HeapTupleHeaderGetUpdateXid.exit

HeapTupleHeaderGetUpdateXid.exit:                 ; preds = %HeapTupleHeaderGetXmin.exit, %HeapTupleGetUpdateXid.exit.i
  %23 = phi i16 [ %.pre, %HeapTupleGetUpdateXid.exit.i ], [ %.val.i, %HeapTupleHeaderGetXmin.exit ]
  %.0.i = phi i32 [ %.08.i.i.i, %HeapTupleGetUpdateXid.exit.i ], [ %.val.i.i, %HeapTupleHeaderGetXmin.exit ]
  %.not.i = icmp ult i16 %23, 16384
  br i1 %.not.i, label %HeapTupleHeaderGetXvac.exit.thread, label %24

24:                                               ; preds = %HeapTupleHeaderGetUpdateXid.exit
  %25 = getelementptr inbounds nuw i8, ptr %0, i64 8
  %26 = load i32, ptr %25, align 4
  %27 = load i32, ptr %1, align 4
  %28 = call zeroext i1 @TransactionIdPrecedes(i32 noundef %27, i32 noundef %26) #13
  br i1 %28, label %29, label %HeapTupleHeaderGetXvac.exit.thread

29:                                               ; preds = %24
  store i32 %26, ptr %1, align 4
  br label %HeapTupleHeaderGetXvac.exit.thread

HeapTupleHeaderGetXvac.exit.thread:               ; preds = %HeapTupleHeaderGetUpdateXid.exit, %24, %29
  %.val18 = load i16, ptr %4, align 4
  %30 = and i16 %.val18, 256
  %.not = icmp eq i16 %30, 0
  br i1 %.not, label %31, label %35

31:                                               ; preds = %HeapTupleHeaderGetXvac.exit.thread
  %32 = and i16 %.val18, 512
  %.not21 = icmp eq i16 %32, 0
  br i1 %.not21, label %33, label %40

33:                                               ; preds = %31
  %34 = call zeroext i1 @TransactionIdDidCommit(i32 noundef %8) #13
  %.not16 = icmp ne i32 %.0.i, %8
  %or.cond.not = select i1 %34, i1 %.not16, i1 false
  br i1 %or.cond.not, label %36, label %40

35:                                               ; preds = %HeapTupleHeaderGetXvac.exit.thread
  %.not16.old = icmp eq i32 %.0.i, %8
  br i1 %.not16.old, label %40, label %36

36:                                               ; preds = %33, %35
  %37 = load i32, ptr %1, align 4
  %38 = call zeroext i1 @TransactionIdFollows(i32 noundef %.0.i, i32 noundef %37) #13
  br i1 %38, label %39, label %40

39:                                               ; preds = %36
  store i32 %.0.i, ptr %1, align 4
  br label %40

40:                                               ; preds = %35, %36, %39, %33, %31
  ret void
}